target datalayout = "e-m:e-p270:32:32-p271:32:32-p272:64:64-i64:64-i128:128-f80:128-n8:16:32:64-S128"
target triple = "x86_64-pc-linux-gnu"

%"class.boost::detail::shared_count" = type { ptr }
%"struct.boost::detail::thread_data_base" = type <{ ptr, %"class.boost::enable_shared_from_this", %"class.boost::shared_ptr", i64, %"class.boost::mutex", %"class.boost::condition_variable", i8, i8, i8, [5 x i8], ptr, %"class.std::map", ptr, ptr, %"class.std::vector", %"class.std::vector.7", i8, i8, [6 x i8] }>
%"class.boost::enable_shared_from_this" = type { %"class.boost::weak_ptr" }
%"class.boost::weak_ptr" = type { ptr, %"class.boost::detail::weak_count" }
%"class.boost::detail::weak_count" = type { ptr }
%"class.boost::shared_ptr" = type { ptr, %"class.boost::detail::shared_count" }
%"class.boost::mutex" = type { %union.pthread_mutex_t }
%union.pthread_mutex_t = type { %struct.__pthread_mutex_s }
%struct.__pthread_mutex_s = type { i32, i32, i32, i32, i32, i16, i16, %struct.__pthread_internal_list }
%struct.__pthread_internal_list = type { ptr, ptr }
%"class.boost::condition_variable" = type { %union.pthread_mutex_t, %union.pthread_cond_t }
%union.pthread_cond_t = type { %struct.__pthread_cond_s }
%struct.__pthread_cond_s = type { %union.__atomic_wide_counter, %union.__atomic_wide_counter, [2 x i32], [2 x i32], i32, i32, [2 x i32] }
%union.__atomic_wide_counter = type { i64 }
%"class.std::map" = type { %"class.std::_Rb_tree" }
%"class.std::_Rb_tree" = type { %"struct.std::_Rb_tree<const void *, std::pair<const void *const, boost::detail::tss_data_node>, std::_Select1st<std::pair<const void *const, boost::detail::tss_data_node>>, std::less<const void *>>::_Rb_tree_impl" }
%"struct.std::_Rb_tree<const void *, std::pair<const void *const, boost::detail::tss_data_node>, std::_Select1st<std::pair<const void *const, boost::detail::tss_data_node>>, std::less<const void *>>::_Rb_tree_impl" = type { [8 x i8], %"struct.std::_Rb_tree_header" }
%"struct.std::_Rb_tree_header" = type { %"struct.std::_Rb_tree_node_base", i64 }
%"struct.std::_Rb_tree_node_base" = type { i32, ptr, ptr, ptr }
%"class.std::vector" = type { %"struct.std::_Vector_base" }
%"struct.std::_Vector_base" = type { %"struct.std::_Vector_base<std::pair<boost::condition_variable *, boost::mutex *>, std::allocator<std::pair<boost::condition_variable *, boost::mutex *>>>::_Vector_impl" }
%"struct.std::_Vector_base<std::pair<boost::condition_variable *, boost::mutex *>, std::allocator<std::pair<boost::condition_variable *, boost::mutex *>>>::_Vector_impl" = type { %"struct.std::_Vector_base<std::pair<boost::condition_variable *, boost::mutex *>, std::allocator<std::pair<boost::condition_variable *, boost::mutex *>>>::_Vector_impl_data" }
%"struct.std::_Vector_base<std::pair<boost::condition_variable *, boost::mutex *>, std::allocator<std::pair<boost::condition_variable *, boost::mutex *>>>::_Vector_impl_data" = type { ptr, ptr, ptr }
%"class.std::vector.7" = type { %"struct.std::_Vector_base.8" }
%"struct.std::_Vector_base.8" = type { %"struct.std::_Vector_base<boost::shared_ptr<boost::detail::shared_state_base>, std::allocator<boost::shared_ptr<boost::detail::shared_state_base>>>::_Vector_impl" }
%"struct.std::_Vector_base<boost::shared_ptr<boost::detail::shared_state_base>, std::allocator<boost::shared_ptr<boost::detail::shared_state_base>>>::_Vector_impl" = type { %"struct.std::_Vector_base<boost::shared_ptr<boost::detail::shared_state_base>, std::allocator<boost::shared_ptr<boost::detail::shared_state_base>>>::_Vector_impl_data" }
%"struct.std::_Vector_base<boost::shared_ptr<boost::detail::shared_state_base>, std::allocator<boost::shared_ptr<boost::detail::shared_state_base>>>::_Vector_impl_data" = type { ptr, ptr, ptr }
%"class.boost::thread" = type { %"class.boost::shared_ptr" }
%"class.boost::lock_guard" = type { ptr }
%"class.boost::system::system_error" = type { %"class.std::runtime_error", %"class.boost::system::error_code" }
%"class.std::runtime_error" = type { %"class.std::exception", %"struct.std::__cow_string" }
%"class.std::exception" = type { ptr }
%"struct.std::__cow_string" = type { %union.anon.40 }
%union.anon.40 = type { ptr }
%"class.boost::system::error_code" = type { %union.anon.41, i64 }
%union.anon.41 = type { %"struct.boost::system::error_code::data" }
%"struct.boost::system::error_code::data" = type { i32, ptr }
%"class.boost::detail::sp_counted_base" = type { ptr, i32, i32 }
%"class.boost::lock_error" = type { %"class.boost::thread_exception" }
%"class.boost::thread_exception" = type { %"class.boost::system::system_error" }

@.str.27 = private unnamed_addr constant [47 x i8] c"boost: mutex lock failed in pthread_mutex_lock\00", align 1

; Function Attrs: inlinehint mustprogress nounwind uwtable
define linkonce_odr hidden void @_ZN5boost6detail16atomic_incrementEPj(ptr noundef %0) #1 comdat {
  %2 = alloca ptr, align 8
  %3 = alloca i32, align 4
  %4 = alloca i32, align 4
  store ptr %0, ptr %2, align 8, !tbaa !3
  %5 = load ptr, ptr %2, align 8, !tbaa !3
  store i32 1, ptr %3, align 4, !tbaa !7
  %6 = load i32, ptr %3, align 4
  %7 = atomicrmw add ptr %5, i32 %6 monotonic, align 4
  store i32 %7, ptr %4, align 4
  ret void
}

; Function Attrs: mustprogress uwtable
define linkonce_odr hidden void @_ZN5boost6detail15sp_counted_base12add_ref_copyEv(ptr noundef nonnull align 8 dereferenceable(16) %0) #5 comdat align 2 {
  %2 = alloca ptr, align 8
  store ptr %0, ptr %2, align 8, !tbaa !3
  %3 = load ptr, ptr %2, align 8
  %4 = getelementptr inbounds nuw %"class.boost::detail::sp_counted_base", ptr %3, i32 0, i32 1
  call void @_ZN5boost6detail16atomic_incrementEPj(ptr noundef %4)
  ret void
}

; Function Attrs: alwaysinline mustprogress nounwind uwtable
define linkonce_odr hidden noundef i32 @_ZN5boost5posix20pthread_mutex_unlockEP15pthread_mutex_t(ptr noundef %0) #9 comdat {
  %2 = alloca ptr, align 8
  %3 = alloca i32, align 4
  store ptr %0, ptr %2, align 8, !tbaa !3
  call void @llvm.lifetime.start.p0(i64 4, ptr %3) #11
  br label %4

4:                                                ; preds = %7, %1
  %5 = load ptr, ptr %2, align 8, !tbaa !3
  %6 = call i32 @pthread_mutex_unlock(ptr noundef %5) #11
  store i32 %6, ptr %3, align 4, !tbaa !7
  br label %7

7:                                                ; preds = %4
  %8 = load i32, ptr %3, align 4, !tbaa !7
  %9 = icmp eq i32 %8, 4
  br i1 %9, label %4, label %10, !llvm.loop !104

10:                                               ; preds = %7
  %11 = load i32, ptr %3, align 4, !tbaa !7
  call void @llvm.lifetime.end.p0(i64 4, ptr %3) #11
  ret i32 %11
}

; Function Attrs: alwaysinline mustprogress nounwind uwtable
define linkonce_odr hidden noundef i32 @_ZN5boost5posix18pthread_mutex_lockEP15pthread_mutex_t(ptr noundef %0) #9 comdat {
  %2 = alloca ptr, align 8
  %3 = alloca i32, align 4
  store ptr %0, ptr %2, align 8, !tbaa !3
  call void @llvm.lifetime.start.p0(i64 4, ptr %3) #11
  br label %4

4:                                                ; preds = %7, %1
  %5 = load ptr, ptr %2, align 8, !tbaa !3
  %6 = call i32 @pthread_mutex_lock(ptr noundef %5) #11
  store i32 %6, ptr %3, align 4, !tbaa !7
  br label %7

7:                                                ; preds = %4
  %8 = load i32, ptr %3, align 4, !tbaa !7
  %9 = icmp eq i32 %8, 4
  br i1 %9, label %4, label %10, !llvm.loop !167

10:                                               ; preds = %7
  %11 = load i32, ptr %3, align 4, !tbaa !7
  call void @llvm.lifetime.end.p0(i64 4, ptr %3) #11
  ret i32 %11
}

; Function Attrs: mustprogress nounwind uwtable
define linkonce_odr hidden void @_ZN5boost6detail12shared_countC2ERKS1_(ptr noundef nonnull align 8 dereferenceable(8) %0, ptr noundef nonnull align 8 dereferenceable(8) %1) unnamed_addr #2 comdat align 2 personality ptr @__gxx_personality_v0 {
  %3 = alloca ptr, align 8
  %4 = alloca ptr, align 8
  store ptr %0, ptr %3, align 8, !tbaa !3
  store ptr %1, ptr %4, align 8, !tbaa !3
  %5 = load ptr, ptr %3, align 8
  %6 = getelementptr inbounds nuw %"class.boost::detail::shared_count", ptr %5, i32 0, i32 0
  %7 = load ptr, ptr %4, align 8, !tbaa !3
  %8 = getelementptr inbounds nuw %"class.boost::detail::shared_count", ptr %7, i32 0, i32 0
  %9 = load ptr, ptr %8, align 8, !tbaa !133
  store ptr %9, ptr %6, align 8, !tbaa !133
  %10 = getelementptr inbounds nuw %"class.boost::detail::shared_count", ptr %5, i32 0, i32 0
  %11 = load ptr, ptr %10, align 8, !tbaa !133
  %12 = icmp ne ptr %11, null
  br i1 %12, label %13, label %17

13:                                               ; preds = %2
  %14 = getelementptr inbounds nuw %"class.boost::detail::shared_count", ptr %5, i32 0, i32 0
  %15 = load ptr, ptr %14, align 8, !tbaa !133
  invoke void @_ZN5boost6detail15sp_counted_base12add_ref_copyEv(ptr noundef nonnull align 8 dereferenceable(16) %15)
          to label %16 unwind label %18

16:                                               ; preds = %13
  br label %17

17:                                               ; preds = %16, %2
  ret void

18:                                               ; preds = %13
  %19 = landingpad { ptr, i32 }
          catch ptr null
  %20 = extractvalue { ptr, i32 } %19, 0
  call void @__clang_call_terminate(ptr %20) #24
  unreachable
}

; Function Attrs: mustprogress uwtable
define linkonce_odr hidden void @_ZN5boost5mutex6unlockEv(ptr noundef nonnull align 8 dereferenceable(40) %0) #5 comdat align 2 {
  %2 = alloca ptr, align 8
  store ptr %0, ptr %2, align 8, !tbaa !3
  %3 = load ptr, ptr %2, align 8
  %4 = getelementptr inbounds nuw %"class.boost::mutex", ptr %3, i32 0, i32 0
  %5 = call noundef i32 @_ZN5boost5posix20pthread_mutex_unlockEP15pthread_mutex_t(ptr noundef %4)
  ret void
}

; Function Attrs: mustprogress uwtable
define linkonce_odr hidden void @_ZN5boost5mutex4lockEv(ptr noundef nonnull align 8 dereferenceable(40) %0) #5 comdat align 2 personality ptr @__gxx_personality_v0 {
  %2 = alloca ptr, align 8
  %3 = alloca i32, align 4
  %4 = alloca %"class.boost::lock_error", align 8
  %5 = alloca ptr, align 8
  %6 = alloca i32, align 4
  store ptr %0, ptr %2, align 8, !tbaa !3
  %7 = load ptr, ptr %2, align 8
  call void @llvm.lifetime.start.p0(i64 4, ptr %3) #11
  %8 = getelementptr inbounds nuw %"class.boost::mutex", ptr %7, i32 0, i32 0
  %9 = call noundef i32 @_ZN5boost5posix18pthread_mutex_lockEP15pthread_mutex_t(ptr noundef %8)
  store i32 %9, ptr %3, align 4, !tbaa !7
  %10 = load i32, ptr %3, align 4, !tbaa !7
  %11 = icmp ne i32 %10, 0
  br i1 %11, label %12, label %19

12:                                               ; preds = %1
  call void @llvm.lifetime.start.p0(i64 40, ptr %4) #11
  %13 = load i32, ptr %3, align 4, !tbaa !7
  call void @_ZN5boost10lock_errorC2EiPKc(ptr noundef nonnull align 8 dereferenceable(40) %4, i32 noundef %13, ptr noundef @.str.27)
  invoke void @_ZN5boost15throw_exceptionINS_10lock_errorEEEvRKT_(ptr noundef nonnull align 8 dereferenceable(40) %4) #25
          to label %14 unwind label %15

14:                                               ; preds = %12
  unreachable

15:                                               ; preds = %12
  %16 = landingpad { ptr, i32 }
          cleanup
  %17 = extractvalue { ptr, i32 } %16, 0
  store ptr %17, ptr %5, align 8
  %18 = extractvalue { ptr, i32 } %16, 1
  store i32 %18, ptr %6, align 4
  call void @_ZNSt13runtime_errorD2Ev(ptr noundef nonnull align 8 dereferenceable(40) %4) #11
  call void @llvm.lifetime.end.p0(i64 40, ptr %4) #11
  call void @llvm.lifetime.end.p0(i64 4, ptr %3) #11
  br label %20

19:                                               ; preds = %1
  call void @llvm.lifetime.end.p0(i64 4, ptr %3) #11
  ret void

20:                                               ; preds = %15
  %21 = load ptr, ptr %5, align 8
  %22 = load i32, ptr %6, align 4
  %23 = insertvalue { ptr, i32 } poison, ptr %21, 0
  %24 = insertvalue { ptr, i32 } %23, i32 %22, 1
  resume { ptr, i32 } %24
}

; Function Attrs: mustprogress nounwind uwtable
define linkonce_odr hidden void @_ZN5boost10shared_ptrINS_6detail16thread_data_baseEEC2ERKS3_(ptr noundef nonnull align 8 dereferenceable(16) %0, ptr noundef nonnull align 8 dereferenceable(16) %1) unnamed_addr #2 comdat align 2 {
  %3 = alloca ptr, align 8
  %4 = alloca ptr, align 8
  store ptr %0, ptr %3, align 8, !tbaa !3
  store ptr %1, ptr %4, align 8, !tbaa !3
  %5 = load ptr, ptr %3, align 8
  %6 = getelementptr inbounds nuw %"class.boost::shared_ptr", ptr %5, i32 0, i32 0
  %7 = load ptr, ptr %4, align 8, !tbaa !3
  %8 = getelementptr inbounds nuw %"class.boost::shared_ptr", ptr %7, i32 0, i32 0
  %9 = load ptr, ptr %8, align 8, !tbaa !35
  store ptr %9, ptr %6, align 8, !tbaa !35
  %10 = getelementptr inbounds nuw %"class.boost::shared_ptr", ptr %5, i32 0, i32 1
  %11 = load ptr, ptr %4, align 8, !tbaa !3
  %12 = getelementptr inbounds nuw %"class.boost::shared_ptr", ptr %11, i32 0, i32 1
  call void @_ZN5boost6detail12shared_countC2ERKS1_(ptr noundef nonnull align 8 dereferenceable(8) %10, ptr noundef nonnull align 8 dereferenceable(8) %12) #11
  ret void
}

; Function Attrs: mustprogress nounwind uwtable
define linkonce_odr hidden void @_ZN5boost10lock_guardINS_5mutexEED2Ev(ptr noundef nonnull align 8 dereferenceable(8) %0) unnamed_addr #2 comdat align 2 personality ptr @__gxx_personality_v0 {
  %2 = alloca ptr, align 8
  store ptr %0, ptr %2, align 8, !tbaa !3
  %3 = load ptr, ptr %2, align 8
  %4 = getelementptr inbounds nuw %"class.boost::lock_guard", ptr %3, i32 0, i32 0
  %5 = load ptr, ptr %4, align 8, !tbaa !71
  invoke void @_ZN5boost5mutex6unlockEv(ptr noundef nonnull align 8 dereferenceable(40) %5)
          to label %6 unwind label %7

6:                                                ; preds = %1
  ret void

7:                                                ; preds = %1
  %8 = landingpad { ptr, i32 }
          catch ptr null
  %9 = extractvalue { ptr, i32 } %8, 0
  call void @__clang_call_terminate(ptr %9) #24
  unreachable
}

; Function Attrs: mustprogress uwtable
define linkonce_odr hidden void @_ZN5boost10lock_guardINS_5mutexEEC2ERS1_(ptr noundef nonnull align 8 dereferenceable(8) %0, ptr noundef nonnull align 8 dereferenceable(40) %1) unnamed_addr #5 comdat align 2 {
  %3 = alloca ptr, align 8
  %4 = alloca ptr, align 8
  store ptr %0, ptr %3, align 8, !tbaa !3
  store ptr %1, ptr %4, align 8, !tbaa !3
  %5 = load ptr, ptr %3, align 8
  %6 = getelementptr inbounds nuw %"class.boost::lock_guard", ptr %5, i32 0, i32 0
  %7 = load ptr, ptr %4, align 8, !tbaa !3
  store ptr %7, ptr %6, align 8, !tbaa !3
  %8 = getelementptr inbounds nuw %"class.boost::lock_guard", ptr %5, i32 0, i32 0
  %9 = load ptr, ptr %8, align 8, !tbaa !71
  call void @_ZN5boost5mutex4lockEv(ptr noundef nonnull align 8 dereferenceable(40) %9)
  ret void
}

; Function Attrs: mustprogress nounwind uwtable
define linkonce_odr hidden noundef ptr @_ZNK5boost10shared_ptrINS_6detail16thread_data_baseEEptEv(ptr noundef nonnull align 8 dereferenceable(16) %0) #2 comdat align 2 {
  %2 = alloca ptr, align 8
  store ptr %0, ptr %2, align 8, !tbaa !3
  %3 = load ptr, ptr %2, align 8
  %4 = getelementptr inbounds nuw %"class.boost::shared_ptr", ptr %3, i32 0, i32 0
  %5 = load ptr, ptr %4, align 8, !tbaa !35
  ret ptr %5
}

; Function Attrs: mustprogress nounwind uwtable
define linkonce_odr hidden noundef zeroext i1 @_ZNK5boost10shared_ptrINS_6detail16thread_data_baseEEcvbEv(ptr noundef nonnull align 8 dereferenceable(16) %0) #2 comdat align 2 {
  %2 = alloca ptr, align 8
  store ptr %0, ptr %2, align 8, !tbaa !3
  %3 = load ptr, ptr %2, align 8
  %4 = getelementptr inbounds nuw %"class.boost::shared_ptr", ptr %3, i32 0, i32 0
  %5 = load ptr, ptr %4, align 8, !tbaa !35
  %6 = icmp ne ptr %5, null
  ret i1 %6
}

; Function Attrs: mustprogress nounwind uwtable
define void @_ZNK5boost6thread15get_thread_infoEv(ptr dead_on_unwind noalias writable sret(%"class.boost::shared_ptr") align 8 %0, ptr noundef nonnull align 8 dereferenceable(16) %1) #2 align 2 {
  %3 = alloca ptr, align 8
  %4 = alloca ptr, align 8
  store ptr %0, ptr %3, align 8
  store ptr %1, ptr %4, align 8, !tbaa !3
  %5 = load ptr, ptr %4, align 8
  %6 = getelementptr inbounds nuw %"class.boost::thread", ptr %5, i32 0, i32 0
  call void @_ZN5boost10shared_ptrINS_6detail16thread_data_baseEEC2ERKS3_(ptr noundef nonnull align 8 dereferenceable(16) %0, ptr noundef nonnull align 8 dereferenceable(16) %6) #11
  ret void
}

; Function Attrs: mustprogress uwtable
define noundef i64 @_ZN5boost6thread13native_handleEv(ptr noundef nonnull align 8 dereferenceable(16) %0) #5 align 2 personality ptr @__gxx_personality_v0 {
  %2 = alloca i64, align 8
  %3 = alloca ptr, align 8
  %4 = alloca %"class.boost::shared_ptr", align 8
  %5 = alloca %"class.boost::lock_guard", align 8
  %6 = alloca ptr, align 8
  %7 = alloca i32, align 4
  %8 = alloca i32, align 4
  store ptr %0, ptr %3, align 8, !tbaa !3
  %9 = load ptr, ptr %3, align 8
  call void @llvm.lifetime.start.p0(i64 16, ptr %4) #11
  call void @_ZNK5boost6thread15get_thread_infoEv(ptr dead_on_unwind writable sret(%"class.boost::shared_ptr") align 8 %4, ptr noundef nonnull align 8 dereferenceable(16) %9)
  %10 = call noundef zeroext i1 @_ZNK5boost10shared_ptrINS_6detail16thread_data_baseEEcvbEv(ptr noundef nonnull align 8 dereferenceable(16) %4) #11
  br i1 %10, label %11, label %22

11:                                               ; preds = %1
  call void @llvm.lifetime.start.p0(i64 8, ptr %5) #11
  %12 = call noundef ptr @_ZNK5boost10shared_ptrINS_6detail16thread_data_baseEEptEv(ptr noundef nonnull align 8 dereferenceable(16) %4) #11
  %13 = getelementptr inbounds nuw %"struct.boost::detail::thread_data_base", ptr %12, i32 0, i32 4
  invoke void @_ZN5boost10lock_guardINS_5mutexEEC2ERS1_(ptr noundef nonnull align 8 dereferenceable(8) %5, ptr noundef nonnull align 8 dereferenceable(40) %13)
          to label %14 unwind label %18

14:                                               ; preds = %11
  %15 = call noundef ptr @_ZNK5boost10shared_ptrINS_6detail16thread_data_baseEEptEv(ptr noundef nonnull align 8 dereferenceable(16) %4) #11
  %16 = getelementptr inbounds nuw %"struct.boost::detail::thread_data_base", ptr %15, i32 0, i32 3
  %17 = load i64, ptr %16, align 8, !tbaa !67
  store i64 %17, ptr %2, align 8
  store i32 1, ptr %8, align 4
  call void @_ZN5boost10lock_guardINS_5mutexEED2Ev(ptr noundef nonnull align 8 dereferenceable(8) %5) #11
  call void @llvm.lifetime.end.p0(i64 8, ptr %5) #11
  br label %23

18:                                               ; preds = %11
  %19 = landingpad { ptr, i32 }
          cleanup
  %20 = extractvalue { ptr, i32 } %19, 0
  store ptr %20, ptr %6, align 8
  %21 = extractvalue { ptr, i32 } %19, 1
  store i32 %21, ptr %7, align 4
  call void @llvm.lifetime.end.p0(i64 8, ptr %5) #11
  call void @_ZN5boost10shared_ptrINS_6detail16thread_data_baseEED2Ev(ptr noundef nonnull align 8 dereferenceable(16) %4) #11
  call void @llvm.lifetime.end.p0(i64 16, ptr %4) #11
  br label %25

22:                                               ; preds = %1
  store i64 0, ptr %2, align 8
  store i32 1, ptr %8, align 4
  br label %23

23:                                               ; preds = %22, %14
  call void @_ZN5boost10shared_ptrINS_6detail16thread_data_baseEED2Ev(ptr noundef nonnull align 8 dereferenceable(16) %4) #11
  call void @llvm.lifetime.end.p0(i64 16, ptr %4) #11
  %24 = load i64, ptr %2, align 8
  ret i64 %24

25:                                               ; preds = %18
  %26 = load ptr, ptr %6, align 8
  %27 = load i32, ptr %7, align 4
  %28 = insertvalue { ptr, i32 } poison, ptr %26, 0
  %29 = insertvalue { ptr, i32 } %28, i32 %27, 1
  resume { ptr, i32 } %29
}