; Function Attrs: mustprogress uwtable
define noundef i64 @_ZN5boost6thread13native_handleEv(ptr nocapture noundef nonnull readonly align 8 dereferenceable(16) %0) local_unnamed_addr #9 align 2 personality ptr @__gxx_personality_v0 {
  %2 = alloca %"class.boost::lock_error", align 8
  %3 = alloca %"class.boost::shared_ptr", align 8
  call void @llvm.lifetime.start.p0(i64 16, ptr nonnull %3) #32
  tail call void @llvm.experimental.noalias.scope.decl(metadata !152)
  %4 = load ptr, ptr %0, align 8, !tbaa !74, !noalias !152
  store ptr %4, ptr %3, align 8, !tbaa !74, !alias.scope !152
  %5 = getelementptr inbounds nuw i8, ptr %3, i64 8
  %6 = getelementptr inbounds nuw i8, ptr %0, i64 8
  %7 = load ptr, ptr %6, align 8, !tbaa !30, !noalias !152
  store ptr %7, ptr %5, align 8, !tbaa !30, !alias.scope !152
  %.not.i.i.i = icmp eq ptr %7, null
  br i1 %.not.i.i.i, label %_ZNK5boost6thread15get_thread_infoEv.exit, label %8

8:                                                ; preds = %1
  %9 = getelementptr inbounds nuw i8, ptr %7, i64 8
  %10 = atomicrmw add ptr %9, i32 1 monotonic, align 4, !noalias !152
  br label %_ZNK5boost6thread15get_thread_infoEv.exit

_ZNK5boost6thread15get_thread_infoEv.exit:        ; preds = %1, %8
  %.not = icmp eq ptr %4, null
  br i1 %.not, label %_ZN5boost10lock_guardINS_5mutexEED2Ev.exit, label %11

11:                                               ; preds = %_ZNK5boost6thread15get_thread_infoEv.exit
  %12 = getelementptr inbounds nuw i8, ptr %4, i64 48
  br label %13

13:                                               ; preds = %13, %11
  %14 = tail call i32 @pthread_mutex_lock(ptr noundef nonnull align 8 dereferenceable(40) %12) #32
  switch i32 %14, label %15 [
    i32 4, label %13
    i32 0, label %_ZN5boost10lock_guardINS_5mutexEEC2ERS1_.exit
  ]

15:                                               ; preds = %13
  call void @llvm.lifetime.start.p0(i64 40, ptr nonnull %2) #32
  invoke void @_ZN5boost10lock_errorC2EiPKc(ptr noundef nonnull align 8 dereferenceable(40) %2, i32 noundef %14, ptr noundef nonnull @.str.27)
          to label %.noexc unwind label %24

.noexc:                                           ; preds = %15
  invoke void @_ZN5boost15throw_exceptionINS_10lock_errorEEEvRKT_(ptr noundef nonnull align 8 dereferenceable(40) %2) #33
          to label %16 unwind label %17

16:                                               ; preds = %.noexc
  unreachable

17:                                               ; preds = %.noexc
  %18 = landingpad { ptr, i32 }
          cleanup
  call void @_ZNSt13runtime_errorD2Ev(ptr noundef nonnull align 8 dereferenceable(40) %2) #32
  call void @llvm.lifetime.end.p0(i64 40, ptr nonnull %2) #32
  br label %.body

_ZN5boost10lock_guardINS_5mutexEEC2ERS1_.exit:    ; preds = %13
  %19 = getelementptr inbounds nuw i8, ptr %4, i64 40
  %20 = load i64, ptr %19, align 8, !tbaa !88
  br label %21

21:                                               ; preds = %21, %_ZN5boost10lock_guardINS_5mutexEEC2ERS1_.exit
  %22 = tail call i32 @pthread_mutex_unlock(ptr noundef nonnull align 8 dereferenceable(40) %12) #32
  %23 = icmp eq i32 %22, 4
  br i1 %23, label %21, label %_ZN5boost10lock_guardINS_5mutexEED2Ev.exit, !llvm.loop !22

24:                                               ; preds = %15
  %25 = landingpad { ptr, i32 }
          cleanup
  br label %.body

.body:                                            ; preds = %17, %24
  %eh.lpad-body = phi { ptr, i32 } [ %25, %24 ], [ %18, %17 ]
  call void @_ZN5boost10shared_ptrINS_6detail16thread_data_baseEED2Ev(ptr noundef nonnull align 8 dereferenceable(16) %3) #32
  call void @llvm.lifetime.end.p0(i64 16, ptr nonnull %3) #32
  resume { ptr, i32 } %eh.lpad-body

_ZN5boost10lock_guardINS_5mutexEED2Ev.exit:       ; preds = %21, %_ZNK5boost6thread15get_thread_infoEv.exit
  %.0 = phi i64 [ 0, %_ZNK5boost6thread15get_thread_infoEv.exit ], [ %20, %21 ]
  br i1 %.not.i.i.i, label %_ZN5boost10shared_ptrINS_6detail16thread_data_baseEED2Ev.exit, label %26

26:                                               ; preds = %_ZN5boost10lock_guardINS_5mutexEED2Ev.exit
  %27 = getelementptr inbounds nuw i8, ptr %7, i64 8
  %28 = atomicrmw sub ptr %27, i32 1 acq_rel, align 4
  %29 = icmp eq i32 %28, 1
  br i1 %29, label %30, label %_ZN5boost10shared_ptrINS_6detail16thread_data_baseEED2Ev.exit

30:                                               ; preds = %26
  %31 = load ptr, ptr %7, align 8, !tbaa !17
  %32 = getelementptr inbounds i8, ptr %31, i64 16
  %33 = load ptr, ptr %32, align 8
  invoke void %33(ptr noundef nonnull align 8 dereferenceable(16) %7)
          to label %.noexc.i.i unwind label %41

.noexc.i.i:                                       ; preds = %30
  %34 = getelementptr inbounds nuw i8, ptr %7, i64 12
  %35 = atomicrmw sub ptr %34, i32 1 acq_rel, align 4
  %36 = icmp eq i32 %35, 1
  br i1 %36, label %37, label %_ZN5boost10shared_ptrINS_6detail16thread_data_baseEED2Ev.exit

37:                                               ; preds = %.noexc.i.i
  %38 = load ptr, ptr %7, align 8, !tbaa !17
  %39 = getelementptr inbounds i8, ptr %38, i64 24
  %40 = load ptr, ptr %39, align 8
  invoke void %40(ptr noundef nonnull align 8 dereferenceable(16) %7)
          to label %_ZN5boost10shared_ptrINS_6detail16thread_data_baseEED2Ev.exit unwind label %41

41:                                               ; preds = %37, %30
  %42 = landingpad { ptr, i32 }
          catch ptr null
  %43 = extractvalue { ptr, i32 } %42, 0
  tail call void @__clang_call_terminate(ptr %43) #34
  unreachable

_ZN5boost10shared_ptrINS_6detail16thread_data_baseEED2Ev.exit: ; preds = %_ZN5boost10lock_guardINS_5mutexEED2Ev.exit, %26, %.noexc.i.i, %37
  call void @llvm.lifetime.end.p0(i64 16, ptr nonnull %3) #32
  ret i64 %.0
}